Certificate:
    Data:
        Version: 3 (0x2)
        Serial Number: 112 (0x70)
    Signature Algorithm: sha256WithRSAEncryption
        Issuer: C=US, ST=NY, L=New York, O=dummy, OU=IT, CN=dummy CA/name=LocalCA/emailAddress=demo@example.com
        Validity
            Not Before: Aug 11 14:58:43 2022 GMT
            Not After : Aug  8 14:58:43 2032 GMT
        Subject: C=US, ST=NY, L=New York, O=dummy, OU=IT, CN=gleb/name=gleb/emailAddress=demo@example.com
        Subject Public Key Info:
            Public Key Algorithm: rsaEncryption
                Public-Key: (2048 bit)
                Modulus:
                    00:d2:ff:0e:9e:c7:9d:f0:8e:7f:2f:e7:30:c7:a2:
                    24:7f:d4:92:89:10:17:a4:0e:f8:ca:33:8e:b7:18:
                    84:29:41:9f:66:fd:e7:0a:67:da:d9:97:11:29:6d:
                    69:b8:a1:37:82:c4:f4:d2:7b:33:c6:e8:6b:e5:7b:
                    49:6c:5d:8a:99:05:56:22:42:ad:32:d8:c0:8a:52:
                    68:25:bc:99:a1:f9:3b:9c:b7:f2:91:e2:cd:4b:3a:
                    17:3a:26:39:f6:11:43:8d:70:cf:93:17:95:03:d7:
                    b2:71:b2:8d:4e:a8:36:e5:3e:09:9c:6f:19:ee:23:
                    6e:ee:ae:14:3d:86:f2:a6:07:83:f3:a7:25:c9:32:
                    da:a0:88:dc:34:90:d7:a4:88:23:b4:1b:bd:0c:46:
                    db:2c:99:4b:59:e2:ea:30:37:e9:f9:4f:97:e4:b2:
                    bb:30:ed:66:23:33:7e:45:41:c4:e5:6d:07:dc:3f:
                    f7:26:3d:28:22:c3:a6:b6:f2:22:52:b8:19:5f:ad:
                    c2:04:36:c9:1c:59:ee:96:17:4f:b5:e2:5c:04:f1:
                    d7:17:60:bd:ed:48:84:1f:3d:39:7b:f5:bc:65:94:
                    e2:62:0c:c9:14:86:31:c3:1c:b7:0d:a3:09:50:19:
                    ce:db:06:64:49:94:d9:ed:25:b0:48:ee:e1:7d:39:
                    83:09
                Exponent: 65537 (0x10001)
        X509v3 extensions:
            X509v3 Basic Constraints: 
                CA:FALSE
            Netscape Comment: 
                Easy-RSA Generated Certificate
            X509v3 Subject Key Identifier: 
                16:ED:E7:B4:49:9E:4E:0A:25:DB:1B:76:B6:16:AD:A3:FD:CA:A7:D7
            X509v3 Authority Key Identifier: 
                keyid:CB:D4:57:E9:B0:FF:EB:A2:98:C8:7D:C6:5A:B2:68:59:94:E8:85:DD
                DirName:/C=US/ST=NY/L=New York/O=dummy/OU=IT/CN=dummy CA/name=LocalCA/emailAddress=demo@example.com
                serial:AA:72:62:09:9D:88:0F:29

            X509v3 Extended Key Usage: 
                TLS Web Client Authentication
            X509v3 Key Usage: 
                Digital Signature
            X509v3 Subject Alternative Name: 
                DNS:gleb
    Signature Algorithm: sha256WithRSAEncryption
         3f:94:92:f4:7a:e8:5c:db:c4:13:23:80:81:f2:b9:cd:9f:e9:
         a2:24:b6:c7:3c:e0:53:8b:45:68:f3:5a:31:ee:cd:98:d2:b9:
         b7:c1:5c:78:32:33:57:6d:7e:1a:4f:b9:b1:74:c4:40:5e:30:
         84:8b:1d:e5:6d:4b:6d:96:c9:fa:70:bf:d0:48:59:75:7a:38:
         c2:05:8c:81:b8:3f:60:42:9c:16:72:36:c2:cd:ce:28:5d:3d:
         f5:ae:56:f9:b5:d8:01:45:52:54:8b:76:a6:62:96:02:4d:1b:
         22:cb:45:d5:42:09:47:17:49:1c:34:12:ba:2b:0c:89:37:e1:
         53:f1:13:54:45:11:29:07:46:a4:7e:83:bb:40:ce:e7:63:e5:
         25:1f:d7:c4:73:e1:23:7e:2e:a3:a7:a0:4c:59:42:06:25:ab:
         7d:1e:b3:8f:d8:b4:87:dd:fe:68:b3:a3:56:4a:6d:0c:a9:d7:
         34:04:87:c3:8b:ca:8f:62:27:68:8d:7b:43:6a:b4:04:ab:e0:
         3d:28:2d:d6:e2:99:da:6d:f4:0b:aa:88:62:d6:40:fd:36:68:
         28:cd:0e:cb:8b:a4:25:a1:08:89:c9:e0:59:02:5c:7b:e5:a1:
         40:b5:4d:ac:8a:84:c2:f7:e8:22:18:69:98:d1:83:24:bd:34:
         de:d6:2f:6e
-----BEGIN CERTIFICATE-----
MIIE8DCCA9igAwIBAgIBcDANBgkqhkiG9w0BAQsFADCBkDELMAkGA1UEBhMCVVMx
CzAJBgNVBAgTAk5ZMREwDwYDVQQHEwhOZXcgWW9yazEOMAwGA1UEChMFZHVtbXkx
CzAJBgNVBAsTAklUMREwDwYDVQQDEwhkdW1teSBDQTEQMA4GA1UEKRMHTG9jYWxD
QTEfMB0GCSqGSIb3DQEJARYQZGVtb0BleGFtcGxlLmNvbTAeFw0yMjA4MTExNDU4
NDNaFw0zMjA4MDgxNDU4NDNaMIGJMQswCQYDVQQGEwJVUzELMAkGA1UECBMCTlkx
ETAPBgNVBAcTCE5ldyBZb3JrMQ4wDAYDVQQKEwVkdW1teTELMAkGA1UECxMCSVQx
DTALBgNVBAMTBGdsZWIxDTALBgNVBCkTBGdsZWIxHzAdBgkqhkiG9w0BCQEWEGRl
bW9AZXhhbXBsZS5jb20wggEiMA0GCSqGSIb3DQEBAQUAA4IBDwAwggEKAoIBAQDS
/w6ex53wjn8v5zDHoiR/1JKJEBekDvjKM463GIQpQZ9m/ecKZ9rZlxEpbWm4oTeC
xPTSezPG6Gvle0lsXYqZBVYiQq0y2MCKUmglvJmh+Tuct/KR4s1LOhc6Jjn2EUON
cM+TF5UD17Jxso1OqDblPgmcbxnuI27urhQ9hvKmB4PzpyXJMtqgiNw0kNekiCO0
G70MRtssmUtZ4uowN+n5T5fksrsw7WYjM35FQcTlbQfcP/cmPSgiw6a28iJSuBlf
rcIENskcWe6WF0+14lwE8dcXYL3tSIQfPTl79bxllOJiDMkUhjHDHLcNowlQGc7b
BmRJlNntJbBI7uF9OYMJAgMBAAGjggFYMIIBVDAJBgNVHRMEAjAAMC0GCWCGSAGG
+EIBDQQgFh5FYXN5LVJTQSBHZW5lcmF0ZWQgQ2VydGlmaWNhdGUwHQYDVR0OBBYE
FBbt57RJnk4KJdsbdrYWraP9yqfXMIHFBgNVHSMEgb0wgbqAFMvUV+mw/+uimMh9
xlqyaFmU6IXdoYGWpIGTMIGQMQswCQYDVQQGEwJVUzELMAkGA1UECBMCTlkxETAP
BgNVBAcTCE5ldyBZb3JrMQ4wDAYDVQQKEwVkdW1teTELMAkGA1UECxMCSVQxETAP
BgNVBAMTCGR1bW15IENBMRAwDgYDVQQpEwdMb2NhbENBMR8wHQYJKoZIhvcNAQkB
FhBkZW1vQGV4YW1wbGUuY29tggkAqnJiCZ2IDykwEwYDVR0lBAwwCgYIKwYBBQUH
AwIwCwYDVR0PBAQDAgeAMA8GA1UdEQQIMAaCBGdsZWIwDQYJKoZIhvcNAQELBQAD
ggEBAD+UkvR66FzbxBMjgIHyuc2f6aIktsc84FOLRWjzWjHuzZjSubfBXHgyM1dt
fhpPubF0xEBeMISLHeVtS22Wyfpwv9BIWXV6OMIFjIG4P2BCnBZyNsLNzihdPfWu
Vvm12AFFUlSLdqZilgJNGyLLRdVCCUcXSRw0ErorDIk34VPxE1RFESkHRqR+g7tA
zudj5SUf18Rz4SN+LqOnoExZQgYlq30es4/YtIfd/mizo1ZKbQyp1zQEh8OLyo9i
J2iNe0NqtASr4D0oLdbimdpt9AuqiGLWQP02aCjNDsuLpCWhCInJ4FkCXHvloUC1
TayKhML36CIYaZjRgyS9NN7WL24=
-----END CERTIFICATE-----
